Certificate:
    Data:
        Version: 3 (0x2)
        Serial Number: 0 (0x0)
        Signature Algorithm: ecdsa-with-SHA256
        Issuer: C=JP, ST=Tokyo, CN=Test CA
        Validity
            Not Before: Dec 29 01:12:26 2022 GMT
            Not After : Dec 26 01:12:26 2032 GMT
        Subject: C=JP, ST=Tokyo, CN=localhost
        Subject Public Key Info:
            Public Key Algorithm: id-ecPublicKey
                Public-Key: (256 bit)
                pub:
                    04:cb:de:8f:75:87:3f:5c:00:00:03:87:ce:39:e8:
                    b7:38:15:0a:c5:a7:6b:5a:dc:1a:0b:45:3b:eb:db:
                    be:55:0e:35:6a:0f:14:8f:b8:4f:1a:66:09:96:72:
                    92:63:7b:95:bd:3b:ce:df:9a:b3:0c:cc:e1:15:04:
                    e4:e8:e5:36:98
                ASN1 OID: prime256v1
                NIST CURVE: P-256
        X509v3 extensions:
            X509v3 Basic Constraints: 
                CA:FALSE
            Netscape Comment: 
                OpenSSL Generated Certificate
            X509v3 Subject Key Identifier: 
                3C:FA:43:84:3C:D8:5D:7B:4C:8B:D1:D1:8B:17:4B:CD:4D:15:85:87
            X509v3 Authority Key Identifier: 
                C2:9B:17:82:58:EC:C7:2D:F4:B7:59:25:48:D8:83:4B:8D:F2:95:30
            X509v3 Extended Key Usage: 
                TLS Web Server Authentication, TLS Web Client Authentication
            X509v3 Subject Alternative Name: 
                DNS:localhost, DNS:example.com, DNS:www.example.com
    Signature Algorithm: ecdsa-with-SHA256
    Signature Value:
        30:46:02:21:00:9a:db:9d:84:72:b1:fd:fd:93:d8:c4:72:f9:
        cd:f9:2a:34:96:39:0e:61:05:45:51:d7:ee:9e:70:6d:44:69:
        e7:02:21:00:a5:7f:cc:be:fa:ab:3a:d5:cf:68:d9:d5:fb:b2:
        aa:9b:2f:81:90:9c:b0:a3:19:1a:04:d1:44:e9:fa:2c:82:6a
-----BEGIN CERTIFICATE-----
MIICIDCCAcWgAwIBAgIBADAKBggqhkjOPQQDAjAvMQswCQYDVQQGEwJKUDEOMAwG
A1UECAwFVG9reW8xEDAOBgNVBAMMB1Rlc3QgQ0EwHhcNMjIxMjI5MDExMjI2WhcN
MzIxMjI2MDExMjI2WjAxMQswCQYDVQQGEwJKUDEOMAwGA1UECAwFVG9reW8xEjAQ
BgNVBAMMCWxvY2FsaG9zdDBZMBMGByqGSM49AgEGCCqGSM49AwEHA0IABMvej3WH
P1wAAAOHzjnotzgVCsWna1rcGgtFO+vbvlUONWoPFI+4TxpmCZZykmN7lb07zt+a
swzM4RUE5OjlNpijgc8wgcwwCQYDVR0TBAIwADAsBglghkgBhvhCAQ0EHxYdT3Bl
blNTTCBHZW5lcmF0ZWQgQ2VydGlmaWNhdGUwHQYDVR0OBBYEFDz6Q4Q82F17TIvR
0YsXS81NFYWHMB8GA1UdIwQYMBaAFMKbF4JY7Mct9LdZJUjYg0uN8pUwMB0GA1Ud
JQQWMBQGCCsGAQUFBwMBBggrBgEFBQcDAjAyBgNVHREEKzApgglsb2NhbGhvc3SC
C2V4YW1wbGUuY29tgg93d3cuZXhhbXBsZS5jb20wCgYIKoZIzj0EAwIDSQAwRgIh
AJrbnYRysf39k9jEcvnN+So0ljkOYQVFUdfunnBtRGnnAiEApX/MvvqrOtXPaNnV
+7Kqmy+BkJywoxkaBNFE6fosgmo=
-----END CERTIFICATE-----
