Certificate:
    Data:
        Version: 3 (0x2)
        Serial Number: 0 (0x0)
        Signature Algorithm: ecdsa-with-SHA256
        Issuer: C=JP, ST=Tokyo, CN=Test CA
        Validity
            Not Before: Dec 29 01:19:46 2022 GMT
            Not After : Dec 26 01:19:46 2032 GMT
        Subject: C=JP, ST=Tokyo, CN=invalid-user
        Subject Public Key Info:
            Public Key Algorithm: id-ecPublicKey
                Public-Key: (256 bit)
                pub:
                    04:0f:d5:fc:62:72:c1:b6:c4:71:48:41:f2:98:a7:
                    d9:3e:6c:47:0e:db:47:a6:a7:60:b6:07:22:07:c3:
                    7e:be:80:a1:71:26:79:1c:c8:1b:16:83:38:81:a3:
                    33:0e:ac:eb:9b:c6:66:e6:a7:59:17:a4:24:4a:95:
                    da:1b:75:5a:41
                ASN1 OID: prime256v1
                NIST CURVE: P-256
        X509v3 extensions:
            X509v3 Basic Constraints: 
                CA:FALSE
            Netscape Comment: 
                OpenSSL Generated Certificate
            X509v3 Subject Key Identifier: 
                AD:B5:3D:64:F3:D3:CF:B5:49:61:97:8A:65:2D:C0:E2:A2:9D:B7:DA
            X509v3 Authority Key Identifier: 
                C2:9B:17:82:58:EC:C7:2D:F4:B7:59:25:48:D8:83:4B:8D:F2:95:30
            X509v3 Extended Key Usage: 
                TLS Web Server Authentication, TLS Web Client Authentication
            X509v3 Subject Alternative Name: 
                DNS:localhost, DNS:example.com, DNS:www.example.com
    Signature Algorithm: ecdsa-with-SHA256
    Signature Value:
        30:45:02:20:14:d5:f5:00:41:70:e0:0a:ca:0d:75:d8:dc:e8:
        b2:69:47:4f:09:e2:86:c1:76:8b:07:75:3c:c1:83:f4:bf:0f:
        02:21:00:d5:a9:6d:aa:90:62:81:15:f0:83:6e:a2:c3:33:7a:
        78:f9:de:28:d6:42:1c:23:17:cd:a6:05:0a:ac:a0:08:b6
-----BEGIN CERTIFICATE-----
MIICIjCCAcigAwIBAgIBADAKBggqhkjOPQQDAjAvMQswCQYDVQQGEwJKUDEOMAwG
A1UECAwFVG9reW8xEDAOBgNVBAMMB1Rlc3QgQ0EwHhcNMjIxMjI5MDExOTQ2WhcN
MzIxMjI2MDExOTQ2WjA0MQswCQYDVQQGEwJKUDEOMAwGA1UECAwFVG9reW8xFTAT
BgNVBAMMDGludmFsaWQtdXNlcjBZMBMGByqGSM49AgEGCCqGSM49AwEHA0IABA/V
/GJywbbEcUhB8pin2T5sRw7bR6anYLYHIgfDfr6AoXEmeRzIGxaDOIGjMw6s65vG
ZuanWRekJEqV2ht1WkGjgc8wgcwwCQYDVR0TBAIwADAsBglghkgBhvhCAQ0EHxYd
T3BlblNTTCBHZW5lcmF0ZWQgQ2VydGlmaWNhdGUwHQYDVR0OBBYEFK21PWTz08+1
SWGXimUtwOKinbfaMB8GA1UdIwQYMBaAFMKbF4JY7Mct9LdZJUjYg0uN8pUwMB0G
A1UdJQQWMBQGCCsGAQUFBwMBBggrBgEFBQcDAjAyBgNVHREEKzApgglsb2NhbGhv
c3SCC2V4YW1wbGUuY29tgg93d3cuZXhhbXBsZS5jb20wCgYIKoZIzj0EAwIDSAAw
RQIgFNX1AEFw4ArKDXXY3OiyaUdPCeKGwXaLB3U8wYP0vw8CIQDVqW2qkGKBFfCD
bqLDM3p4+d4o1kIcIxfNpgUKrKAItg==
-----END CERTIFICATE-----
