Certificate:
    Data:
        Version: 3 (0x2)
        Serial Number: 0 (0x0)
        Signature Algorithm: ecdsa-with-SHA256
        Issuer: C=JP, ST=Tokyo, CN=Test Client CA
        Validity
            Not Before: Dec 29 01:22:31 2022 GMT
            Not After : Dec 26 01:22:31 2032 GMT
        Subject: C=JP, ST=Tokyo, CN=test-user
        Subject Public Key Info:
            Public Key Algorithm: id-ecPublicKey
                Public-Key: (256 bit)
                pub:
                    04:f0:60:55:7b:52:de:26:12:c8:de:00:9a:25:03:
                    fc:18:36:66:4a:ee:3b:70:34:b0:6f:94:48:a8:da:
                    1d:64:bd:6f:06:43:2f:a5:b2:f2:47:b5:a0:4a:22:
                    3d:e4:57:8b:f0:1a:22:03:40:79:02:c7:96:57:41:
                    ee:3a:2e:64:e6
                ASN1 OID: prime256v1
                NIST CURVE: P-256
        X509v3 extensions:
            X509v3 Basic Constraints: 
                CA:FALSE
            Netscape Comment: 
                OpenSSL Generated Certificate
            X509v3 Subject Key Identifier: 
                F8:62:F4:92:71:DE:A1:E1:3F:78:F1:12:93:41:55:B0:E2:84:DC:DA
            X509v3 Authority Key Identifier: 
                AB:E0:79:61:3B:EA:5A:2F:13:FC:5D:0C:4D:9B:08:8E:6F:B3:3D:BE
            X509v3 Extended Key Usage: 
                TLS Web Client Authentication
    Signature Algorithm: ecdsa-with-SHA256
    Signature Value:
        30:46:02:21:00:93:c9:49:4e:1b:33:5c:68:df:2a:e0:98:36:
        96:e4:b3:78:0a:56:f7:6f:64:f9:74:1e:e5:36:f9:49:27:99:
        50:02:21:00:df:e4:a9:46:b5:f9:66:6f:c1:04:68:6b:d0:41:
        4a:2f:0e:3f:02:78:63:47:34:5f:ea:cc:25:15:d6:6d:b8:13
-----BEGIN CERTIFICATE-----
MIIB6TCCAY6gAwIBAgIBADAKBggqhkjOPQQDAjA2MQswCQYDVQQGEwJKUDEOMAwG
A1UECAwFVG9reW8xFzAVBgNVBAMMDlRlc3QgQ2xpZW50IENBMB4XDTIyMTIyOTAx
MjIzMVoXDTMyMTIyNjAxMjIzMVowMTELMAkGA1UEBhMCSlAxDjAMBgNVBAgMBVRv
a3lvMRIwEAYDVQQDDAl0ZXN0LXVzZXIwWTATBgcqhkjOPQIBBggqhkjOPQMBBwNC
AATwYFV7Ut4mEsjeAJolA/wYNmZK7jtwNLBvlEio2h1kvW8GQy+lsvJHtaBKIj3k
V4vwGiIDQHkCx5ZXQe46LmTmo4GRMIGOMAkGA1UdEwQCMAAwLAYJYIZIAYb4QgEN
BB8WHU9wZW5TU0wgR2VuZXJhdGVkIENlcnRpZmljYXRlMB0GA1UdDgQWBBT4YvSS
cd6h4T948RKTQVWw4oTc2jAfBgNVHSMEGDAWgBSr4HlhO+paLxP8XQxNmwiOb7M9
vjATBgNVHSUEDDAKBggrBgEFBQcDAjAKBggqhkjOPQQDAgNJADBGAiEAk8lJThsz
XGjfKuCYNpbks3gKVvdvZPl0HuU2+UknmVACIQDf5KlGtflmb8EEaGvQQUovDj8C
eGNHNF/qzCUV1m24Ew==
-----END CERTIFICATE-----
